; Function Attrs: mustprogress nofree norecurse nosync nounwind memory(argmem: readwrite) uwtable
define dso_local noundef range(i64 0, 2) i64 @_ZN4llvm5APInt9tcAddPartEPmmj(ptr noundef captures(none) %0, i64 noundef %1, i32 noundef %2) local_unnamed_addr #5 align 2 {
  %.not15 = icmp eq i32 %2, 0
  br i1 %.not15, label %._crit_edge, label %.lr.ph.preheader

.lr.ph.preheader:                                 ; preds = %3
  %wide.trip.count = zext i32 %2 to i64
  br label %.lr.ph

4:                                                ; preds = %.lr.ph
  %indvars.iv.next = add nuw nsw i64 %indvars.iv, 1
  %exitcond.not = icmp eq i64 %indvars.iv.next, %wide.trip.count
  br i1 %exitcond.not, label %._crit_edge, label %.lr.ph, !llvm.loop !6

.lr.ph:                                           ; preds = %.lr.ph.preheader, %4
  %indvars.iv = phi i64 [ 0, %.lr.ph.preheader ], [ %indvars.iv.next, %4 ]
  %.01011 = phi i64 [ %1, %.lr.ph.preheader ], [ 1, %4 ]
  %5 = getelementptr inbounds nuw i64, ptr %0, i64 %indvars.iv
  %6 = load i64, ptr %5, align 8
  %7 = add i64 %6, %.01011
  store i64 %7, ptr %5, align 8
  %.not = icmp ult i64 %7, %.01011
  br i1 %.not, label %4, label %._crit_edge

._crit_edge:                                      ; preds = %.lr.ph, %4, %3
  %.09 = phi i64 [ 1, %3 ], [ 1, %4 ], [ 0, %.lr.ph ]
  ret i64 %.09
}